target datalayout = "e-m:e-p270:32:32-p271:32:32-p272:64:64-i64:64-i128:128-f80:128-n8:16:32:64-S128"
target triple = "x86_64-pc-linux-gnu"

%struct.DTS2PTSNode = type { i64, i64, i32, i32 }

; Function Attrs: nounwind uwtable
define internal i32 @cmp_insert(ptr noundef %0, ptr noundef %1) #0 {
  %3 = alloca ptr, align 8
  %4 = alloca ptr, align 8
  %5 = alloca i32, align 4
  store ptr %0, ptr %3, align 8, !tbaa !158
  store ptr %1, ptr %4, align 8, !tbaa !158
  call void @llvm.lifetime.start.p0(i64 4, ptr %5) #7
  %6 = load ptr, ptr %3, align 8, !tbaa !158
  %7 = getelementptr inbounds nuw %struct.DTS2PTSNode, ptr %6, i32 0, i32 2
  %8 = load i32, ptr %7, align 8, !tbaa !61
  %9 = load ptr, ptr %4, align 8, !tbaa !158
  %10 = getelementptr inbounds nuw %struct.DTS2PTSNode, ptr %9, i32 0, i32 2
  %11 = load i32, ptr %10, align 8, !tbaa !61
  %12 = sub nsw i32 %8, %11
  store i32 %12, ptr %5, align 4, !tbaa !20
  %13 = load i32, ptr %5, align 4, !tbaa !20
  %14 = icmp ne i32 %13, 0
  br i1 %14, label %23, label %15

15:                                               ; preds = %2
  %16 = load ptr, ptr %3, align 8, !tbaa !158
  %17 = getelementptr inbounds nuw %struct.DTS2PTSNode, ptr %16, i32 0, i32 3
  %18 = load i32, ptr %17, align 4, !tbaa !73
  %19 = load ptr, ptr %4, align 8, !tbaa !158
  %20 = getelementptr inbounds nuw %struct.DTS2PTSNode, ptr %19, i32 0, i32 3
  %21 = load i32, ptr %20, align 4, !tbaa !73
  %22 = sub nsw i32 %18, %21
  store i32 %22, ptr %5, align 4, !tbaa !20
  br label %23

23:                                               ; preds = %15, %2
  %24 = load i32, ptr %5, align 4, !tbaa !20
  call void @llvm.lifetime.end.p0(i64 4, ptr %5) #7
  ret i32 %24
}